(dp0
S'_AgentService:AgentInfo'
p1
(dp2
S'com.plexapp.agents.fanarttv'
p3
(lp4
(dp5
S'media_types'
p6
(lp7
S'Movie'
p8
asS'accepts_from'
p9
NsS'fallback_agent'
p10
NsS'contributes_to'
p11
(lp12
S'com.plexapp.agents.imdb'
p13
aS'com.plexapp.agents.themoviedb'
p14
asS'has_attribution'
p15
I01
sS'languages'
p16
(lp17
S'xn'
p18
asS'persist_stored_files'
p19
I01
sS'version'
p20
I0
sS'primary_provider'
p21
I00
sS'prefs'
p22
I01
sS'name'
p23
S'Fanart.tv'
p24
sa(dp25
S'media_types'
p26
(lp27
S'TV_Show'
p28
asS'accepts_from'
p29
NsS'fallback_agent'
p30
NsS'contributes_to'
p31
(lp32
S'com.plexapp.agents.thetvdb'
p33
aS'com.plexapp.agents.themoviedb'
p34
asg15
I01
sS'languages'
p35
(lp36
S'xn'
p37
asS'persist_stored_files'
p38
I01
sS'version'
p39
I0
sS'primary_provider'
p40
I00
sS'prefs'
p41
I01
sS'name'
p42
S'Fanart.tv'
p43
sa(dp44
S'media_types'
p45
(lp46
S'Artist'
p47
asS'accepts_from'
p48
NsS'fallback_agent'
p49
NsS'contributes_to'
p50
(lp51
S'com.plexapp.agents.lastfm'
p52
asg15
I01
sS'languages'
p53
(lp54
S'xn'
p55
asS'persist_stored_files'
p56
I01
sS'version'
p57
I0
sS'primary_provider'
p58
I00
sS'prefs'
p59
I01
sS'name'
p60
S'Fanart.tv'
p61
sa(dp62
S'media_types'
p63
(lp64
S'Album'
p65
asS'accepts_from'
p66
NsS'fallback_agent'
p67
NsS'contributes_to'
p68
(lp69
S'com.plexapp.agents.lastfm'
p70
asg15
I01
sS'languages'
p71
(lp72
S'xn'
p73
asS'persist_stored_files'
p74
I01
sS'version'
p75
I0
sS'primary_provider'
p76
I00
sS'prefs'
p77
I01
sS'name'
p78
S'Fanart.tv'
p79
sasS'com.plexapp.agents.none'
p80
(lp81
(dp82
S'media_types'
p83
(lp84
S'Movie'
p85
asS'primary_provider'
p86
I01
sS'fallback_agent'
p87
NsS'contributes_to'
p88
NsS'has_attribution'
p89
I00
sS'languages'
p90
(lp91
S'xn'
p92
asS'persist_stored_files'
p93
I01
sS'version'
p94
I0
sS'accepts_from'
p95
NsS'prefs'
p96
I00
sS'name'
p97
S'Personal Media'
p98
sa(dp99
S'media_types'
p100
(lp101
S'TV_Show'
p102
asS'primary_provider'
p103
I01
sS'fallback_agent'
p104
NsS'contributes_to'
p105
Nsg89
I00
sS'languages'
p106
(lp107
S'xn'
p108
asS'persist_stored_files'
p109
I01
sS'version'
p110
I0
sS'accepts_from'
p111
NsS'prefs'
p112
I00
sS'name'
p113
S'Personal Media Shows'
p114
sa(dp115
S'media_types'
p116
(lp117
S'Artist'
p118
asS'primary_provider'
p119
I01
sS'fallback_agent'
p120
NsS'contributes_to'
p121
Nsg89
I00
sS'languages'
p122
(lp123
S'xn'
p124
asS'persist_stored_files'
p125
I01
sS'version'
p126
I0
sS'accepts_from'
p127
NsS'prefs'
p128
I00
sS'name'
p129
S'Personal Media Artists'
p130
sa(dp131
S'media_types'
p132
(lp133
S'Album'
p134
asS'primary_provider'
p135
I01
sS'fallback_agent'
p136
NsS'contributes_to'
p137
Nsg89
I00
sS'languages'
p138
(lp139
S'xn'
p140
asS'persist_stored_files'
p141
I01
sS'version'
p142
I0
sS'accepts_from'
p143
NsS'prefs'
p144
I00
sS'name'
p145
S'Personal Media Albums'
p146
sa(dp147
S'media_types'
p148
(lp149
S'Photo'
p150
asS'primary_provider'
p151
I01
sS'fallback_agent'
p152
NsS'contributes_to'
p153
Nsg89
I00
sS'languages'
p154
(lp155
S'en'
p156
aS'ar'
p157
aS'bg'
p158
aS'ca'
p159
aS'cs'
p160
aS'cy'
p161
aS'da'
p162
aS'de'
p163
aS'el'
p164
aS'es'
p165
aS'et'
p166
aS'fa'
p167
aS'fi'
p168
aS'fr'
p169
aS'he'
p170
aS'hi'
p171
aS'hr'
p172
aS'ht'
p173
aS'hu'
p174
aS'id'
p175
aS'it'
p176
aS'ja'
p177
aS'ko'
p178
aS'lt'
p179
aS'lv'
p180
aS'ms'
p181
aS'mt'
p182
aS'nl'
p183
aS'no'
p184
aS'pl'
p185
aS'pt'
p186
aS'ro'
p187
aS'ru'
p188
aS'sk'
p189
aS'sv'
p190
aS'sl'
p191
aS'sr'
p192
aS'th'
p193
aS'tr'
p194
aS'uk'
p195
aS'ur'
p196
aS'vi'
p197
aS'zh'
p198
aS'xn'
p199
asS'persist_stored_files'
p200
I01
sS'version'
p201
I0
sS'accepts_from'
p202
NsS'prefs'
p203
I00
sS'name'
p204
S'Photos'
p205
sasS'tv.plex.agents.music'
p206
(lp207
(dp208
S'media_types'
p209
(lp210
S'Artist'
p211
asS'accepts_from'
p212
NsS'fallback_agent'
p213
NsS'contributes_to'
p214
Nsg15
I01
sS'languages'
p215
(lp216
S'en'
p217
aS'ar'
p218
aS'bg'
p219
aS'zh'
p220
aS'hr'
p221
aS'cs'
p222
aS'da'
p223
aS'nl'
p224
aS'fi'
p225
aS'fr'
p226
aS'de'
p227
aS'el'
p228
aS'hu'
p229
aS'id'
p230
aS'it'
p231
aS'ja'
p232
aS'ko'
p233
aS'nn'
p234
aS'pl'
p235
aS'pt'
p236
aS'ro'
p237
aS'ru'
p238
aS'sr'
p239
aS'sk'
p240
aS'es'
p241
aS'sv'
p242
aS'th'
p243
aS'tr'
p244
aS'vi'
p245
aS'xx'
p246
asS'persist_stored_files'
p247
I01
sS'version'
p248
I0
sS'primary_provider'
p249
I01
sS'prefs'
p250
I01
sS'name'
p251
S'Plex Music'
p252
sa(dp253
S'media_types'
p254
(lp255
S'Album'
p256
asS'accepts_from'
p257
NsS'fallback_agent'
p258
NsS'contributes_to'
p259
Nsg15
I01
sS'languages'
p260
g216
sS'persist_stored_files'
p261
I01
sS'version'
p262
I0
sS'primary_provider'
p263
I01
sS'prefs'
p264
I01
sS'name'
p265
S'Plex Music'
p266
sasS'com.plexapp.agents.opensubtitles'
p267
(lp268
(dp269
S'media_types'
p270
(lp271
S'Movie'
p272
asS'accepts_from'
p273
NsS'fallback_agent'
p274
NsS'contributes_to'
p275
(lp276
S'com.plexapp.agents.imdb'
p277
asg15
I00
sS'languages'
p278
(lp279
S'xn'
p280
asS'persist_stored_files'
p281
I01
sS'version'
p282
I0
sS'primary_provider'
p283
I00
sS'prefs'
p284
I01
sS'name'
p285
S'OpenSubtitles.org'
p286
sa(dp287
S'media_types'
p288
(lp289
S'TV_Show'
p290
asS'accepts_from'
p291
NsS'fallback_agent'
p292
NsS'contributes_to'
p293
(lp294
S'com.plexapp.agents.thetvdb'
p295
asg15
I00
sS'languages'
p296
(lp297
S'xn'
p298
asS'persist_stored_files'
p299
I01
sS'version'
p300
I0
sS'primary_provider'
p301
I00
sS'prefs'
p302
I01
sS'name'
p303
S'OpenSubtitles.org'
p304
sasS'com.plexapp.agents.imdb'
p305
(lp306
(dp307
S'media_types'
p308
(lp309
S'Movie'
p310
asS'primary_provider'
p311
I01
sS'fallback_agent'
p312
NsS'contributes_to'
p313
(lp314
S'com.plexapp.agents.themoviedb'
p315
asg89
I01
sS'languages'
p316
(lp317
S'en'
p318
aS'sv'
p319
aS'fr'
p320
aS'es'
p321
aS'nl'
p322
aS'de'
p323
aS'it'
p324
aS'da'
p325
aS'ar'
p326
aS'ca'
p327
aS'zh'
p328
aS'cs'
p329
aS'et'
p330
aS'fi'
p331
aS'el'
p332
aS'he'
p333
aS'hi'
p334
aS'hu'
p335
aS'id'
p336
aS'ja'
p337
aS'ko'
p338
aS'lv'
p339
aS'no'
p340
aS'fa'
p341
aS'pl'
p342
aS'pt'
p343
aS'ro'
p344
aS'ru'
p345
aS'sk'
p346
aS'th'
p347
aS'tr'
p348
aS'uk'
p349
aS'vi'
p350
asS'persist_stored_files'
p351
I01
sS'version'
p352
I0
sS'accepts_from'
p353
(lp354
S'com.plexapp.agents.localmedia'
p355
asS'prefs'
p356
I01
sS'name'
p357
S'Plex Movie'
p358
sasS'com.plexapp.agents.lyricfind'
p359
(lp360
(dp361
S'media_types'
p362
(lp363
S'Album'
p364
asS'accepts_from'
p365
NsS'fallback_agent'
p366
NsS'contributes_to'
p367
(lp368
S'com.plexapp.agents.lastfm'
p369
aS'tv.plex.agents.music'
p370
aS'org.musicbrainz.agents.music'
p371
asg15
I01
sS'languages'
p372
(lp373
S'xn'
p374
asS'persist_stored_files'
p375
I01
sS'version'
p376
I0
sS'primary_provider'
p377
I00
sS'prefs'
p378
I00
sS'name'
p379
S'LyricFind'
p380
sasS'com.plexapp.agents.thetvdb'
p381
(lp382
(dp383
S'media_types'
p384
(lp385
S'TV_Show'
p386
asS'accepts_from'
p387
NsS'fallback_agent'
p388
NsS'contributes_to'
p389
Nsg15
I01
sS'languages'
p390
(lp391
S'en'
p392
aS'fr'
p393
aS'zh'
p394
aS'sv'
p395
aS'no'
p396
aS'da'
p397
aS'fi'
p398
aS'nl'
p399
aS'de'
p400
aS'it'
p401
aS'es'
p402
aS'pl'
p403
aS'hu'
p404
aS'el'
p405
aS'tr'
p406
aS'ru'
p407
aS'he'
p408
aS'ja'
p409
aS'pt'
p410
aS'cs'
p411
aS'ko'
p412
aS'sl'
p413
aS'hr'
p414
asS'persist_stored_files'
p415
I01
sS'version'
p416
I0
sS'primary_provider'
p417
I01
sS'prefs'
p418
I01
sS'name'
p419
S'TheTVDB'
p420
sasS'tv.plex.agents.movie'
p421
(lp422
(dp423
S'media_types'
p424
(lp425
S'Movie'
p426
asS'primary_provider'
p427
I01
sS'fallback_agent'
p428
NsS'contributes_to'
p429
Nsg89
I01
sS'languages'
p430
(lp431
sS'persist_stored_files'
p432
I01
sS'version'
p433
I0
sS'accepts_from'
p434
NsS'prefs'
p435
I01
sS'name'
p436
S'Plex Movie'
p437
sasS'tv.plex.agents.series'
p438
(lp439
(dp440
S'media_types'
p441
(lp442
S'TV_Show'
p443
asS'accepts_from'
p444
NsS'fallback_agent'
p445
NsS'contributes_to'
p446
Nsg15
I01
sS'languages'
p447
(lp448
sS'persist_stored_files'
p449
I01
sS'version'
p450
I0
sS'primary_provider'
p451
I01
sS'prefs'
p452
I01
sS'name'
p453
S'Plex TV Series'
p454
sasS'com.plexapp.agents.lastfm'
p455
(lp456
(dp457
S'media_types'
p458
(lp459
S'Artist'
p460
asS'accepts_from'
p461
NsS'fallback_agent'
p462
NsS'contributes_to'
p463
Nsg15
I01
sS'languages'
p464
(lp465
S'en'
p466
aS'sv'
p467
aS'fr'
p468
aS'es'
p469
aS'de'
p470
aS'pl'
p471
aS'it'
p472
aS'pt'
p473
aS'ja'
p474
aS'tr'
p475
aS'ru'
p476
aS'zh'
p477
asS'persist_stored_files'
p478
I01
sS'version'
p479
I0
sS'primary_provider'
p480
I01
sS'prefs'
p481
I01
sS'name'
p482
S'Last.fm'
p483
sa(dp484
S'media_types'
p485
(lp486
S'Album'
p487
asS'accepts_from'
p488
NsS'fallback_agent'
p489
NsS'contributes_to'
p490
Nsg15
I01
sS'languages'
p491
(lp492
S'en'
p493
aS'sv'
p494
aS'fr'
p495
aS'es'
p496
aS'de'
p497
aS'pl'
p498
aS'it'
p499
aS'pt'
p500
aS'ja'
p501
aS'tr'
p502
aS'ru'
p503
aS'zh'
p504
asS'persist_stored_files'
p505
I01
sS'version'
p506
I0
sS'primary_provider'
p507
I01
sS'prefs'
p508
I01
sS'name'
p509
S'Last.fm'
p510
sasS'org.musicbrainz.agents.music'
p511
(lp512
(dp513
S'media_types'
p514
(lp515
S'Artist'
p516
asS'primary_provider'
p517
I01
sS'fallback_agent'
p518
NsS'contributes_to'
p519
Nsg89
I01
sS'languages'
p520
(lp521
S'en'
p522
aS'ar'
p523
aS'bg'
p524
aS'zh'
p525
aS'hr'
p526
aS'cs'
p527
aS'da'
p528
aS'nl'
p529
aS'fi'
p530
aS'fr'
p531
aS'de'
p532
aS'el'
p533
aS'hu'
p534
aS'id'
p535
aS'it'
p536
aS'ja'
p537
aS'ko'
p538
aS'nn'
p539
aS'pl'
p540
aS'pt'
p541
aS'ro'
p542
aS'ru'
p543
aS'sr'
p544
aS'sk'
p545
aS'es'
p546
aS'sv'
p547
aS'th'
p548
aS'tr'
p549
aS'vi'
p550
aS'xx'
p551
asS'persist_stored_files'
p552
I01
sS'version'
p553
I0
sS'accepts_from'
p554
NsS'prefs'
p555
I01
sS'name'
p556
S'Musicbrainz'
p557
sa(dp558
S'media_types'
p559
(lp560
S'Album'
p561
asS'primary_provider'
p562
I01
sS'fallback_agent'
p563
NsS'contributes_to'
p564
Nsg89
I01
sS'languages'
p565
g521
sS'persist_stored_files'
p566
I01
sS'version'
p567
I0
sS'accepts_from'
p568
NsS'prefs'
p569
I01
sS'name'
p570
S'Musicbrainz'
p571
sasS'com.plexapp.agents.themoviedb'
p572
(lp573
(dp574
S'media_types'
p575
(lp576
S'Movie'
p577
asS'accepts_from'
p578
(lp579
S'com.plexapp.agents.localmedia'
p580
asS'fallback_agent'
p581
NsS'contributes_to'
p582
Nsg15
I01
sS'languages'
p583
(lp584
S'en'
p585
aS'cs'
p586
aS'da'
p587
aS'de'
p588
aS'el'
p589
aS'es'
p590
aS'fi'
p591
aS'fr'
p592
aS'he'
p593
aS'hr'
p594
aS'hu'
p595
aS'it'
p596
aS'lv'
p597
aS'lt'
p598
aS'nl'
p599
aS'no'
p600
aS'pl'
p601
aS'pt'
p602
aS'ru'
p603
aS'sk'
p604
aS'sv'
p605
aS'th'
p606
aS'tr'
p607
aS'vi'
p608
aS'zh'
p609
aS'ko'
p610
asS'persist_stored_files'
p611
I01
sS'version'
p612
I0
sS'primary_provider'
p613
I01
sS'prefs'
p614
I01
sS'name'
p615
S'The Movie Database'
p616
sa(dp617
S'media_types'
p618
(lp619
S'TV_Show'
p620
asS'accepts_from'
p621
(lp622
S'com.plexapp.agents.localmedia'
p623
aS'com.plexapp.agents.thetvdb'
p624
asS'fallback_agent'
p625
NsS'contributes_to'
p626
(lp627
S'com.plexapp.agents.thetvdb'
p628
asg15
I01
sS'languages'
p629
g584
sS'persist_stored_files'
p630
I01
sS'version'
p631
I0
sS'primary_provider'
p632
I01
sS'prefs'
p633
I01
sS'name'
p634
S'The Movie Database'
p635
sasS'com.plexapp.agents.htbackdrops'
p636
(lp637
(dp638
S'media_types'
p639
(lp640
S'Artist'
p641
asS'primary_provider'
p642
I00
sS'fallback_agent'
p643
NsS'contributes_to'
p644
(lp645
S'com.plexapp.agents.lastfm'
p646
asg89
I01
sS'languages'
p647
(lp648
S'ab'
p649
aS'aa'
p650
aS'af'
p651
aS'ak'
p652
aS'sq'
p653
aS'am'
p654
aS'ar'
p655
aS'an'
p656
aS'hy'
p657
aS'as'
p658
aS'av'
p659
aS'ae'
p660
aS'ay'
p661
aS'az'
p662
aS'bm'
p663
aS'ba'
p664
aS'eu'
p665
aS'be'
p666
aS'bn'
p667
aS'bh'
p668
aS'bi'
p669
aS'bs'
p670
aS'pb'
p671
aS'br'
p672
aS'bg'
p673
aS'my'
p674
aS'ca'
p675
aS'ch'
p676
aS'ce'
p677
aS'ny'
p678
aS'zh'
p679
aS'cu'
p680
aS'cv'
p681
aS'kw'
p682
aS'co'
p683
aS'cr'
p684
aS'hr'
p685
aS'cs'
p686
aS'da'
p687
aS'dv'
p688
aS'nl'
p689
aS'dz'
p690
aS'en'
p691
aS'eo'
p692
aS'et'
p693
aS'ee'
p694
aS'fo'
p695
aS'fj'
p696
aS'fi'
p697
aS'fr'
p698
aS'fy'
p699
aS'ff'
p700
aS'gd'
p701
aS'gl'
p702
aS'lg'
p703
aS'ka'
p704
aS'de'
p705
aS'el'
p706
aS'gn'
p707
aS'gu'
p708
aS'ht'
p709
aS'ha'
p710
aS'he'
p711
aS'hz'
p712
aS'hi'
p713
aS'ho'
p714
aS'hu'
p715
aS'is'
p716
aS'io'
p717
aS'ig'
p718
aS'id'
p719
aS'ia'
p720
aS'ie'
p721
aS'iu'
p722
aS'ik'
p723
aS'ga'
p724
aS'it'
p725
aS'ja'
p726
aS'jv'
p727
aS'kl'
p728
aS'kn'
p729
aS'kr'
p730
aS'ks'
p731
aS'kk'
p732
aS'km'
p733
aS'ki'
p734
aS'rw'
p735
aS'ky'
p736
aS'kv'
p737
aS'kg'
p738
aS'ko'
p739
aS'kj'
p740
aS'ku'
p741
aS'lo'
p742
aS'la'
p743
aS'lv'
p744
aS'li'
p745
aS'ln'
p746
aS'lt'
p747
aS'lu'
p748
aS'lb'
p749
aS'mk'
p750
aS'mg'
p751
aS'ms'
p752
aS'ml'
p753
aS'mt'
p754
aS'gv'
p755
aS'mi'
p756
aS'mr'
p757
aS'mh'
p758
aS'mo'
p759
aS'mn'
p760
aS'na'
p761
aS'nv'
p762
aS'ng'
p763
aS'ne'
p764
aS'xn'
p765
aS'nd'
p766
aS'no'
p767
aS'nb'
p768
aS'nn'
p769
aS'oc'
p770
aS'oj'
p771
aS'or'
p772
aS'om'
p773
aS'os'
p774
aS'pi'
p775
aS'pa'
p776
aS'fa'
p777
aS'pl'
p778
aS'pt'
p779
aS'ps'
p780
aS'qu'
p781
aS'rm'
p782
aS'ro'
p783
aS'rn'
p784
aS'ru'
p785
aS'se'
p786
aS'sm'
p787
aS'sg'
p788
aS'sa'
p789
aS'sc'
p790
aS'sr'
p791
aS'sn'
p792
aS'ii'
p793
aS'sd'
p794
aS'si'
p795
aS'sk'
p796
aS'sl'
p797
aS'so'
p798
aS'st'
p799
aS'nr'
p800
aS'es'
p801
aS'su'
p802
aS'sw'
p803
aS'ss'
p804
aS'sv'
p805
aS'tl'
p806
aS'ty'
p807
aS'tg'
p808
aS'ta'
p809
aS'tt'
p810
aS'te'
p811
aS'th'
p812
aS'bo'
p813
aS'ti'
p814
aS'to'
p815
aS'ts'
p816
aS'tn'
p817
aS'tr'
p818
aS'tk'
p819
aS'tw'
p820
aS'ug'
p821
aS'uk'
p822
aS'ur'
p823
aS'uz'
p824
aS've'
p825
aS'vi'
p826
aS'vo'
p827
aS'wa'
p828
aS'cy'
p829
aS'wo'
p830
aS'xh'
p831
aS'yi'
p832
aS'yo'
p833
aS'za'
p834
aS'zu'
p835
asS'persist_stored_files'
p836
I01
sS'version'
p837
I0
sS'accepts_from'
p838
NsS'prefs'
p839
I00
sS'name'
p840
S'Home Theater Backdrops'
p841
sasS'com.plexapp.agents.movieposterdb'
p842
(lp843
(dp844
S'media_types'
p845
(lp846
S'Movie'
p847
asS'primary_provider'
p848
I00
sS'fallback_agent'
p849
NsS'contributes_to'
p850
(lp851
S'com.plexapp.agents.imdb'
p852
asg89
I01
sS'languages'
p853
(lp854
S'xn'
p855
asS'persist_stored_files'
p856
I01
sS'version'
p857
I0
sS'accepts_from'
p858
NsS'prefs'
p859
I00
sS'name'
p860
S'CineMaterial'
p861
sasS'com.plexapp.agents.localmedia'
p862
(lp863
(dp864
S'media_types'
p865
(lp866
S'Movie'
p867
asS'accepts_from'
p868
NsS'fallback_agent'
p869
NsS'contributes_to'
p870
(lp871
S'com.plexapp.agents.imdb'
p872
aS'com.plexapp.agents.none'
p873
asg15
I00
sS'languages'
p874
(lp875
S'xn'
p876
asS'persist_stored_files'
p877
I00
sS'version'
p878
I0
sS'primary_provider'
p879
I00
sS'prefs'
p880
I01
sS'name'
p881
S'Local Media Assets (Movies)'
p882
sa(dp883
S'media_types'
p884
(lp885
S'TV_Show'
p886
asS'accepts_from'
p887
NsS'fallback_agent'
p888
NsS'contributes_to'
p889
(lp890
S'com.plexapp.agents.thetvdb'
p891
aS'com.plexapp.agents.none'
p892
asg15
I00
sS'languages'
p893
(lp894
S'xn'
p895
asS'persist_stored_files'
p896
I00
sS'version'
p897
I0
sS'primary_provider'
p898
I00
sS'prefs'
p899
I01
sS'name'
p900
S'Local Media Assets (TV)'
p901
sa(dp902
S'media_types'
p903
(lp904
S'Artist'
p905
asS'accepts_from'
p906
NsS'fallback_agent'
p907
NsS'contributes_to'
p908
(lp909
S'com.plexapp.agents.discogs'
p910
aS'com.plexapp.agents.lastfm'
p911
aS'com.plexapp.agents.plexmusic'
p912
aS'com.plexapp.agents.none'
p913
aS'tv.plex.agents.music'
p914
aS'org.musicbrainz.agents.music'
p915
asg15
I00
sS'languages'
p916
(lp917
S'xn'
p918
asS'persist_stored_files'
p919
I00
sS'version'
p920
I0
sS'primary_provider'
p921
I00
sS'prefs'
p922
I01
sS'name'
p923
S'Local Media Assets (Artists)'
p924
sa(dp925
S'media_types'
p926
(lp927
S'Artist'
p928
asS'accepts_from'
p929
NsS'fallback_agent'
p930
NsS'contributes_to'
p931
(lp932
S'com.plexapp.agents.plexmusic'
p933
asg15
I00
sS'languages'
p934
g917
sS'persist_stored_files'
p935
I00
sS'version'
p936
I2
sS'primary_provider'
p937
I00
sS'prefs'
p938
I01
sS'name'
p939
S'Local Media Assets (Artists)'
p940
sa(dp941
S'media_types'
p942
(lp943
S'Album'
p944
asS'accepts_from'
p945
NsS'fallback_agent'
p946
NsS'contributes_to'
p947
(lp948
S'com.plexapp.agents.discogs'
p949
aS'com.plexapp.agents.lastfm'
p950
aS'com.plexapp.agents.plexmusic'
p951
aS'com.plexapp.agents.none'
p952
aS'tv.plex.agents.music'
p953
aS'org.musicbrainz.agents.music'
p954
asg15
I00
sS'languages'
p955
(lp956
S'xn'
p957
asS'persist_stored_files'
p958
I00
sS'version'
p959
I0
sS'primary_provider'
p960
I00
sS'prefs'
p961
I01
sS'name'
p962
S'Local Media Assets (Albums)'
p963
sasS'com.plexapp.agents.plexthememusic'
p964
(lp965
(dp966
S'media_types'
p967
(lp968
S'TV_Show'
p969
asS'accepts_from'
p970
NsS'fallback_agent'
p971
NsS'contributes_to'
p972
(lp973
S'com.plexapp.agents.thetvdb'
p974
aS'com.plexapp.agents.thetvdbdvdorder'
p975
aS'com.plexapp.agents.themoviedb'
p976
asg15
I00
sS'languages'
p977
(lp978
S'xn'
p979
asS'persist_stored_files'
p980
I01
sS'version'
p981
I0
sS'primary_provider'
p982
I00
sS'prefs'
p983
I00
sS'name'
p984
S'Plex Theme Music'
p985
sass.