(dp0
S'_AgentService:AgentInfo'
p1
(dp2
S'com.plexapp.agents.fanarttv'
p3
(lp4
(dp5
S'media_types'
p6
(lp7
S'Movie'
p8
asS'primary_provider'
p9
I00
sS'fallback_agent'
p10
NsS'contributes_to'
p11
(lp12
S'com.plexapp.agents.imdb'
p13
aS'com.plexapp.agents.themoviedb'
p14
asS'has_attribution'
p15
I01
sS'languages'
p16
(lp17
S'xn'
p18
asS'persist_stored_files'
p19
I01
sS'version'
p20
I0
sS'accepts_from'
p21
NsS'prefs'
p22
I01
sS'name'
p23
S'Fanart.tv'
p24
sa(dp25
S'media_types'
p26
(lp27
S'TV_Show'
p28
asS'primary_provider'
p29
I00
sS'fallback_agent'
p30
NsS'contributes_to'
p31
(lp32
S'com.plexapp.agents.thetvdb'
p33
aS'com.plexapp.agents.themoviedb'
p34
asg15
I01
sS'languages'
p35
(lp36
S'xn'
p37
asS'persist_stored_files'
p38
I01
sS'version'
p39
I0
sS'accepts_from'
p40
NsS'prefs'
p41
I01
sS'name'
p42
S'Fanart.tv'
p43
sa(dp44
S'media_types'
p45
(lp46
S'Artist'
p47
asS'primary_provider'
p48
I00
sS'fallback_agent'
p49
NsS'contributes_to'
p50
(lp51
S'com.plexapp.agents.lastfm'
p52
asg15
I01
sS'languages'
p53
(lp54
S'xn'
p55
asS'persist_stored_files'
p56
I01
sS'version'
p57
I0
sS'accepts_from'
p58
NsS'prefs'
p59
I01
sS'name'
p60
S'Fanart.tv'
p61
sa(dp62
S'media_types'
p63
(lp64
S'Album'
p65
asS'primary_provider'
p66
I00
sS'fallback_agent'
p67
NsS'contributes_to'
p68
(lp69
S'com.plexapp.agents.lastfm'
p70
asg15
I01
sS'languages'
p71
(lp72
S'xn'
p73
asS'persist_stored_files'
p74
I01
sS'version'
p75
I0
sS'accepts_from'
p76
NsS'prefs'
p77
I01
sS'name'
p78
S'Fanart.tv'
p79
sasS'com.plexapp.agents.none'
p80
(lp81
(dp82
S'media_types'
p83
(lp84
S'Movie'
p85
asS'primary_provider'
p86
I01
sS'fallback_agent'
p87
NsS'contributes_to'
p88
Nsg15
I00
sS'languages'
p89
(lp90
S'xn'
p91
asS'persist_stored_files'
p92
I01
sS'version'
p93
I0
sS'accepts_from'
p94
NsS'prefs'
p95
I00
sS'name'
p96
S'Personal Media'
p97
sa(dp98
S'media_types'
p99
(lp100
S'TV_Show'
p101
asS'primary_provider'
p102
I01
sS'fallback_agent'
p103
NsS'contributes_to'
p104
Nsg15
I00
sS'languages'
p105
(lp106
S'xn'
p107
asS'persist_stored_files'
p108
I01
sS'version'
p109
I0
sS'accepts_from'
p110
NsS'prefs'
p111
I00
sS'name'
p112
S'Personal Media Shows'
p113
sa(dp114
S'media_types'
p115
(lp116
S'Artist'
p117
asS'primary_provider'
p118
I01
sS'fallback_agent'
p119
NsS'contributes_to'
p120
Nsg15
I00
sS'languages'
p121
(lp122
S'xn'
p123
asS'persist_stored_files'
p124
I01
sS'version'
p125
I0
sS'accepts_from'
p126
NsS'prefs'
p127
I00
sS'name'
p128
S'Personal Media Artists'
p129
sa(dp130
S'media_types'
p131
(lp132
S'Album'
p133
asS'primary_provider'
p134
I01
sS'fallback_agent'
p135
NsS'contributes_to'
p136
Nsg15
I00
sS'languages'
p137
(lp138
S'xn'
p139
asS'persist_stored_files'
p140
I01
sS'version'
p141
I0
sS'accepts_from'
p142
NsS'prefs'
p143
I00
sS'name'
p144
S'Personal Media Albums'
p145
sa(dp146
S'media_types'
p147
(lp148
S'Photo'
p149
asS'primary_provider'
p150
I01
sS'fallback_agent'
p151
NsS'contributes_to'
p152
Nsg15
I00
sS'languages'
p153
(lp154
S'en'
p155
aS'ar'
p156
aS'bg'
p157
aS'ca'
p158
aS'cs'
p159
aS'cy'
p160
aS'da'
p161
aS'de'
p162
aS'el'
p163
aS'es'
p164
aS'et'
p165
aS'fa'
p166
aS'fi'
p167
aS'fr'
p168
aS'he'
p169
aS'hi'
p170
aS'hr'
p171
aS'ht'
p172
aS'hu'
p173
aS'id'
p174
aS'it'
p175
aS'ja'
p176
aS'ko'
p177
aS'lt'
p178
aS'lv'
p179
aS'ms'
p180
aS'mt'
p181
aS'nl'
p182
aS'no'
p183
aS'pl'
p184
aS'pt'
p185
aS'ro'
p186
aS'ru'
p187
aS'sk'
p188
aS'sv'
p189
aS'sl'
p190
aS'sr'
p191
aS'th'
p192
aS'tr'
p193
aS'uk'
p194
aS'ur'
p195
aS'vi'
p196
aS'zh'
p197
aS'xn'
p198
asS'persist_stored_files'
p199
I01
sS'version'
p200
I0
sS'accepts_from'
p201
NsS'prefs'
p202
I00
sS'name'
p203
S'Photos'
p204
sasS'tv.plex.agents.music'
p205
(lp206
(dp207
S'media_types'
p208
(lp209
S'Artist'
p210
asS'primary_provider'
p211
I01
sS'fallback_agent'
p212
NsS'contributes_to'
p213
Nsg15
I01
sS'languages'
p214
(lp215
S'en'
p216
aS'ar'
p217
aS'bg'
p218
aS'zh'
p219
aS'hr'
p220
aS'cs'
p221
aS'da'
p222
aS'nl'
p223
aS'fi'
p224
aS'fr'
p225
aS'de'
p226
aS'el'
p227
aS'hu'
p228
aS'id'
p229
aS'it'
p230
aS'ja'
p231
aS'ko'
p232
aS'nn'
p233
aS'pl'
p234
aS'pt'
p235
aS'ro'
p236
aS'ru'
p237
aS'sr'
p238
aS'sk'
p239
aS'es'
p240
aS'sv'
p241
aS'th'
p242
aS'tr'
p243
aS'vi'
p244
aS'xx'
p245
asS'persist_stored_files'
p246
I01
sS'version'
p247
I0
sS'accepts_from'
p248
NsS'prefs'
p249
I01
sS'name'
p250
S'Plex Music'
p251
sa(dp252
S'media_types'
p253
(lp254
S'Album'
p255
asS'primary_provider'
p256
I01
sS'fallback_agent'
p257
NsS'contributes_to'
p258
Nsg15
I01
sS'languages'
p259
g215
sS'persist_stored_files'
p260
I01
sS'version'
p261
I0
sS'accepts_from'
p262
NsS'prefs'
p263
I01
sS'name'
p264
S'Plex Music'
p265
sasS'com.plexapp.agents.opensubtitles'
p266
(lp267
(dp268
S'media_types'
p269
(lp270
S'Movie'
p271
asS'primary_provider'
p272
I00
sS'fallback_agent'
p273
NsS'contributes_to'
p274
(lp275
S'com.plexapp.agents.imdb'
p276
asg15
I00
sS'languages'
p277
(lp278
S'xn'
p279
asS'persist_stored_files'
p280
I01
sS'version'
p281
I0
sS'accepts_from'
p282
NsS'prefs'
p283
I01
sS'name'
p284
S'OpenSubtitles.org'
p285
sa(dp286
S'media_types'
p287
(lp288
S'TV_Show'
p289
asS'primary_provider'
p290
I00
sS'fallback_agent'
p291
NsS'contributes_to'
p292
(lp293
S'com.plexapp.agents.thetvdb'
p294
asg15
I00
sS'languages'
p295
(lp296
S'xn'
p297
asS'persist_stored_files'
p298
I01
sS'version'
p299
I0
sS'accepts_from'
p300
NsS'prefs'
p301
I01
sS'name'
p302
S'OpenSubtitles.org'
p303
sasS'com.plexapp.agents.imdb'
p304
(lp305
(dp306
S'media_types'
p307
(lp308
S'Movie'
p309
asS'primary_provider'
p310
I01
sS'fallback_agent'
p311
NsS'contributes_to'
p312
(lp313
S'com.plexapp.agents.themoviedb'
p314
asg15
I01
sS'languages'
p315
(lp316
S'en'
p317
aS'sv'
p318
aS'fr'
p319
aS'es'
p320
aS'nl'
p321
aS'de'
p322
aS'it'
p323
aS'da'
p324
aS'ar'
p325
aS'ca'
p326
aS'zh'
p327
aS'cs'
p328
aS'et'
p329
aS'fi'
p330
aS'el'
p331
aS'he'
p332
aS'hi'
p333
aS'hu'
p334
aS'id'
p335
aS'ja'
p336
aS'ko'
p337
aS'lv'
p338
aS'no'
p339
aS'fa'
p340
aS'pl'
p341
aS'pt'
p342
aS'ro'
p343
aS'ru'
p344
aS'sk'
p345
aS'th'
p346
aS'tr'
p347
aS'uk'
p348
aS'vi'
p349
asS'persist_stored_files'
p350
I01
sS'version'
p351
I0
sS'accepts_from'
p352
(lp353
S'com.plexapp.agents.localmedia'
p354
asS'prefs'
p355
I01
sS'name'
p356
S'Plex Movie'
p357
sasS'com.plexapp.agents.lyricfind'
p358
(lp359
(dp360
S'media_types'
p361
(lp362
S'Album'
p363
asS'primary_provider'
p364
I00
sS'fallback_agent'
p365
NsS'contributes_to'
p366
(lp367
S'com.plexapp.agents.lastfm'
p368
aS'tv.plex.agents.music'
p369
aS'org.musicbrainz.agents.music'
p370
asg15
I01
sS'languages'
p371
(lp372
S'xn'
p373
asS'persist_stored_files'
p374
I01
sS'version'
p375
I0
sS'accepts_from'
p376
NsS'prefs'
p377
I00
sS'name'
p378
S'LyricFind'
p379
sasS'com.plexapp.agents.thetvdb'
p380
(lp381
(dp382
S'media_types'
p383
(lp384
S'TV_Show'
p385
asS'primary_provider'
p386
I01
sS'fallback_agent'
p387
NsS'contributes_to'
p388
Nsg15
I01
sS'languages'
p389
(lp390
S'en'
p391
aS'fr'
p392
aS'zh'
p393
aS'sv'
p394
aS'no'
p395
aS'da'
p396
aS'fi'
p397
aS'nl'
p398
aS'de'
p399
aS'it'
p400
aS'es'
p401
aS'pl'
p402
aS'hu'
p403
aS'el'
p404
aS'tr'
p405
aS'ru'
p406
aS'he'
p407
aS'ja'
p408
aS'pt'
p409
aS'cs'
p410
aS'ko'
p411
aS'sl'
p412
aS'hr'
p413
asS'persist_stored_files'
p414
I01
sS'version'
p415
I0
sS'accepts_from'
p416
NsS'prefs'
p417
I01
sS'name'
p418
S'TheTVDB'
p419
sasS'tv.plex.agents.movie'
p420
(lp421
(dp422
S'media_types'
p423
(lp424
S'Movie'
p425
asS'primary_provider'
p426
I01
sS'fallback_agent'
p427
NsS'contributes_to'
p428
Nsg15
I01
sS'languages'
p429
(lp430
sS'persist_stored_files'
p431
I01
sS'version'
p432
I0
sS'accepts_from'
p433
NsS'prefs'
p434
I01
sS'name'
p435
S'Plex Movie'
p436
sasS'tv.plex.agents.series'
p437
(lp438
(dp439
S'media_types'
p440
(lp441
S'TV_Show'
p442
asS'primary_provider'
p443
I01
sS'fallback_agent'
p444
NsS'contributes_to'
p445
Nsg15
I01
sS'languages'
p446
(lp447
sS'persist_stored_files'
p448
I01
sS'version'
p449
I0
sS'accepts_from'
p450
NsS'prefs'
p451
I01
sS'name'
p452
S'Plex TV Series'
p453
sasS'com.plexapp.agents.lastfm'
p454
(lp455
(dp456
S'media_types'
p457
(lp458
S'Artist'
p459
asS'primary_provider'
p460
I01
sS'fallback_agent'
p461
NsS'contributes_to'
p462
Nsg15
I01
sS'languages'
p463
(lp464
S'en'
p465
aS'sv'
p466
aS'fr'
p467
aS'es'
p468
aS'de'
p469
aS'pl'
p470
aS'it'
p471
aS'pt'
p472
aS'ja'
p473
aS'tr'
p474
aS'ru'
p475
aS'zh'
p476
asS'persist_stored_files'
p477
I01
sS'version'
p478
I0
sS'accepts_from'
p479
NsS'prefs'
p480
I01
sS'name'
p481
S'Last.fm'
p482
sa(dp483
S'media_types'
p484
(lp485
S'Album'
p486
asS'primary_provider'
p487
I01
sS'fallback_agent'
p488
NsS'contributes_to'
p489
Nsg15
I01
sS'languages'
p490
(lp491
S'en'
p492
aS'sv'
p493
aS'fr'
p494
aS'es'
p495
aS'de'
p496
aS'pl'
p497
aS'it'
p498
aS'pt'
p499
aS'ja'
p500
aS'tr'
p501
aS'ru'
p502
aS'zh'
p503
asS'persist_stored_files'
p504
I01
sS'version'
p505
I0
sS'accepts_from'
p506
NsS'prefs'
p507
I01
sS'name'
p508
S'Last.fm'
p509
sasS'org.musicbrainz.agents.music'
p510
(lp511
(dp512
S'media_types'
p513
(lp514
S'Artist'
p515
asS'primary_provider'
p516
I01
sS'fallback_agent'
p517
NsS'contributes_to'
p518
Nsg15
I01
sS'languages'
p519
(lp520
S'en'
p521
aS'ar'
p522
aS'bg'
p523
aS'zh'
p524
aS'hr'
p525
aS'cs'
p526
aS'da'
p527
aS'nl'
p528
aS'fi'
p529
aS'fr'
p530
aS'de'
p531
aS'el'
p532
aS'hu'
p533
aS'id'
p534
aS'it'
p535
aS'ja'
p536
aS'ko'
p537
aS'nn'
p538
aS'pl'
p539
aS'pt'
p540
aS'ro'
p541
aS'ru'
p542
aS'sr'
p543
aS'sk'
p544
aS'es'
p545
aS'sv'
p546
aS'th'
p547
aS'tr'
p548
aS'vi'
p549
aS'xx'
p550
asS'persist_stored_files'
p551
I01
sS'version'
p552
I0
sS'accepts_from'
p553
NsS'prefs'
p554
I01
sS'name'
p555
S'Musicbrainz'
p556
sa(dp557
S'media_types'
p558
(lp559
S'Album'
p560
asS'primary_provider'
p561
I01
sS'fallback_agent'
p562
NsS'contributes_to'
p563
Nsg15
I01
sS'languages'
p564
g520
sS'persist_stored_files'
p565
I01
sS'version'
p566
I0
sS'accepts_from'
p567
NsS'prefs'
p568
I01
sS'name'
p569
S'Musicbrainz'
p570
sasS'com.plexapp.agents.themoviedb'
p571
(lp572
(dp573
S'media_types'
p574
(lp575
S'Movie'
p576
asS'primary_provider'
p577
I01
sS'fallback_agent'
p578
NsS'contributes_to'
p579
Nsg15
I01
sS'languages'
p580
(lp581
S'en'
p582
aS'cs'
p583
aS'da'
p584
aS'de'
p585
aS'el'
p586
aS'es'
p587
aS'fi'
p588
aS'fr'
p589
aS'he'
p590
aS'hr'
p591
aS'hu'
p592
aS'it'
p593
aS'lv'
p594
aS'lt'
p595
aS'nl'
p596
aS'no'
p597
aS'pl'
p598
aS'pt'
p599
aS'ru'
p600
aS'sk'
p601
aS'sv'
p602
aS'th'
p603
aS'tr'
p604
aS'vi'
p605
aS'zh'
p606
aS'ko'
p607
asS'persist_stored_files'
p608
I01
sS'version'
p609
I0
sS'accepts_from'
p610
(lp611
S'com.plexapp.agents.localmedia'
p612
asS'prefs'
p613
I01
sS'name'
p614
S'The Movie Database'
p615
sa(dp616
S'media_types'
p617
(lp618
S'TV_Show'
p619
asS'primary_provider'
p620
I01
sS'fallback_agent'
p621
NsS'contributes_to'
p622
(lp623
S'com.plexapp.agents.thetvdb'
p624
asg15
I01
sS'languages'
p625
g581
sS'persist_stored_files'
p626
I01
sS'version'
p627
I0
sS'accepts_from'
p628
(lp629
S'com.plexapp.agents.localmedia'
p630
aS'com.plexapp.agents.thetvdb'
p631
asS'prefs'
p632
I01
sS'name'
p633
S'The Movie Database'
p634
sasS'com.plexapp.agents.localmedia'
p635
(lp636
(dp637
S'media_types'
p638
(lp639
S'Movie'
p640
asS'primary_provider'
p641
I00
sS'fallback_agent'
p642
NsS'contributes_to'
p643
(lp644
S'com.plexapp.agents.imdb'
p645
aS'com.plexapp.agents.none'
p646
asg15
I00
sS'languages'
p647
(lp648
S'xn'
p649
asS'persist_stored_files'
p650
I00
sS'version'
p651
I0
sS'accepts_from'
p652
NsS'prefs'
p653
I01
sS'name'
p654
S'Local Media Assets (Movies)'
p655
sa(dp656
S'media_types'
p657
(lp658
S'TV_Show'
p659
asS'primary_provider'
p660
I00
sS'fallback_agent'
p661
NsS'contributes_to'
p662
(lp663
S'com.plexapp.agents.thetvdb'
p664
aS'com.plexapp.agents.none'
p665
asg15
I00
sS'languages'
p666
(lp667
S'xn'
p668
asS'persist_stored_files'
p669
I00
sS'version'
p670
I0
sS'accepts_from'
p671
NsS'prefs'
p672
I01
sS'name'
p673
S'Local Media Assets (TV)'
p674
sa(dp675
S'media_types'
p676
(lp677
S'Artist'
p678
asS'primary_provider'
p679
I00
sS'fallback_agent'
p680
NsS'contributes_to'
p681
(lp682
S'com.plexapp.agents.discogs'
p683
aS'com.plexapp.agents.lastfm'
p684
aS'com.plexapp.agents.plexmusic'
p685
aS'com.plexapp.agents.none'
p686
aS'tv.plex.agents.music'
p687
aS'org.musicbrainz.agents.music'
p688
asg15
I00
sS'languages'
p689
(lp690
S'xn'
p691
asS'persist_stored_files'
p692
I00
sS'version'
p693
I0
sS'accepts_from'
p694
NsS'prefs'
p695
I01
sS'name'
p696
S'Local Media Assets (Artists)'
p697
sa(dp698
S'media_types'
p699
(lp700
S'Artist'
p701
asS'primary_provider'
p702
I00
sS'fallback_agent'
p703
NsS'contributes_to'
p704
(lp705
S'com.plexapp.agents.plexmusic'
p706
asg15
I00
sS'languages'
p707
g690
sS'persist_stored_files'
p708
I00
sS'version'
p709
I2
sS'accepts_from'
p710
NsS'prefs'
p711
I01
sS'name'
p712
S'Local Media Assets (Artists)'
p713
sa(dp714
S'media_types'
p715
(lp716
S'Album'
p717
asS'primary_provider'
p718
I00
sS'fallback_agent'
p719
NsS'contributes_to'
p720
(lp721
S'com.plexapp.agents.discogs'
p722
aS'com.plexapp.agents.lastfm'
p723
aS'com.plexapp.agents.plexmusic'
p724
aS'com.plexapp.agents.none'
p725
aS'tv.plex.agents.music'
p726
aS'org.musicbrainz.agents.music'
p727
asg15
I00
sS'languages'
p728
(lp729
S'xn'
p730
asS'persist_stored_files'
p731
I00
sS'version'
p732
I0
sS'accepts_from'
p733
NsS'prefs'
p734
I01
sS'name'
p735
S'Local Media Assets (Albums)'
p736
sasS'com.plexapp.agents.movieposterdb'
p737
(lp738
(dp739
S'media_types'
p740
(lp741
S'Movie'
p742
asS'primary_provider'
p743
I00
sS'fallback_agent'
p744
NsS'contributes_to'
p745
(lp746
S'com.plexapp.agents.imdb'
p747
asg15
I01
sS'languages'
p748
(lp749
S'xn'
p750
asS'persist_stored_files'
p751
I01
sS'version'
p752
I0
sS'accepts_from'
p753
NsS'prefs'
p754
I00
sS'name'
p755
S'CineMaterial'
p756
sasS'com.plexapp.agents.htbackdrops'
p757
(lp758
(dp759
S'media_types'
p760
(lp761
S'Artist'
p762
asS'primary_provider'
p763
I00
sS'fallback_agent'
p764
NsS'contributes_to'
p765
(lp766
S'com.plexapp.agents.lastfm'
p767
asg15
I01
sS'languages'
p768
(lp769
S'ab'
p770
aS'aa'
p771
aS'af'
p772
aS'ak'
p773
aS'sq'
p774
aS'am'
p775
aS'ar'
p776
aS'an'
p777
aS'hy'
p778
aS'as'
p779
aS'av'
p780
aS'ae'
p781
aS'ay'
p782
aS'az'
p783
aS'bm'
p784
aS'ba'
p785
aS'eu'
p786
aS'be'
p787
aS'bn'
p788
aS'bh'
p789
aS'bi'
p790
aS'bs'
p791
aS'pb'
p792
aS'br'
p793
aS'bg'
p794
aS'my'
p795
aS'ca'
p796
aS'ch'
p797
aS'ce'
p798
aS'ny'
p799
aS'zh'
p800
aS'cu'
p801
aS'cv'
p802
aS'kw'
p803
aS'co'
p804
aS'cr'
p805
aS'hr'
p806
aS'cs'
p807
aS'da'
p808
aS'dv'
p809
aS'nl'
p810
aS'dz'
p811
aS'en'
p812
aS'eo'
p813
aS'et'
p814
aS'ee'
p815
aS'fo'
p816
aS'fj'
p817
aS'fi'
p818
aS'fr'
p819
aS'fy'
p820
aS'ff'
p821
aS'gd'
p822
aS'gl'
p823
aS'lg'
p824
aS'ka'
p825
aS'de'
p826
aS'el'
p827
aS'gn'
p828
aS'gu'
p829
aS'ht'
p830
aS'ha'
p831
aS'he'
p832
aS'hz'
p833
aS'hi'
p834
aS'ho'
p835
aS'hu'
p836
aS'is'
p837
aS'io'
p838
aS'ig'
p839
aS'id'
p840
aS'ia'
p841
aS'ie'
p842
aS'iu'
p843
aS'ik'
p844
aS'ga'
p845
aS'it'
p846
aS'ja'
p847
aS'jv'
p848
aS'kl'
p849
aS'kn'
p850
aS'kr'
p851
aS'ks'
p852
aS'kk'
p853
aS'km'
p854
aS'ki'
p855
aS'rw'
p856
aS'ky'
p857
aS'kv'
p858
aS'kg'
p859
aS'ko'
p860
aS'kj'
p861
aS'ku'
p862
aS'lo'
p863
aS'la'
p864
aS'lv'
p865
aS'li'
p866
aS'ln'
p867
aS'lt'
p868
aS'lu'
p869
aS'lb'
p870
aS'mk'
p871
aS'mg'
p872
aS'ms'
p873
aS'ml'
p874
aS'mt'
p875
aS'gv'
p876
aS'mi'
p877
aS'mr'
p878
aS'mh'
p879
aS'mo'
p880
aS'mn'
p881
aS'na'
p882
aS'nv'
p883
aS'ng'
p884
aS'ne'
p885
aS'xn'
p886
aS'nd'
p887
aS'no'
p888
aS'nb'
p889
aS'nn'
p890
aS'oc'
p891
aS'oj'
p892
aS'or'
p893
aS'om'
p894
aS'os'
p895
aS'pi'
p896
aS'pa'
p897
aS'fa'
p898
aS'pl'
p899
aS'pt'
p900
aS'ps'
p901
aS'qu'
p902
aS'rm'
p903
aS'ro'
p904
aS'rn'
p905
aS'ru'
p906
aS'se'
p907
aS'sm'
p908
aS'sg'
p909
aS'sa'
p910
aS'sc'
p911
aS'sr'
p912
aS'sn'
p913
aS'ii'
p914
aS'sd'
p915
aS'si'
p916
aS'sk'
p917
aS'sl'
p918
aS'so'
p919
aS'st'
p920
aS'nr'
p921
aS'es'
p922
aS'su'
p923
aS'sw'
p924
aS'ss'
p925
aS'sv'
p926
aS'tl'
p927
aS'ty'
p928
aS'tg'
p929
aS'ta'
p930
aS'tt'
p931
aS'te'
p932
aS'th'
p933
aS'bo'
p934
aS'ti'
p935
aS'to'
p936
aS'ts'
p937
aS'tn'
p938
aS'tr'
p939
aS'tk'
p940
aS'tw'
p941
aS'ug'
p942
aS'uk'
p943
aS'ur'
p944
aS'uz'
p945
aS've'
p946
aS'vi'
p947
aS'vo'
p948
aS'wa'
p949
aS'cy'
p950
aS'wo'
p951
aS'xh'
p952
aS'yi'
p953
aS'yo'
p954
aS'za'
p955
aS'zu'
p956
asS'persist_stored_files'
p957
I01
sS'version'
p958
I0
sS'accepts_from'
p959
NsS'prefs'
p960
I00
sS'name'
p961
S'Home Theater Backdrops'
p962
sasS'com.plexapp.agents.plexthememusic'
p963
(lp964
(dp965
S'media_types'
p966
(lp967
S'TV_Show'
p968
asS'primary_provider'
p969
I00
sS'fallback_agent'
p970
NsS'contributes_to'
p971
(lp972
S'com.plexapp.agents.thetvdb'
p973
aS'com.plexapp.agents.thetvdbdvdorder'
p974
aS'com.plexapp.agents.themoviedb'
p975
asg15
I00
sS'languages'
p976
(lp977
S'xn'
p978
asS'persist_stored_files'
p979
I01
sS'version'
p980
I0
sS'accepts_from'
p981
NsS'prefs'
p982
I00
sS'name'
p983
S'Plex Theme Music'
p984
sass.